; Function Attrs: mustprogress uwtable
define hidden void @_ZN4cvc58internal6theory7strings11SkolemCache19mkTypedSkolemCachedENS0_8TypeNodeENS0_12NodeTemplateILb1EEENS3_14StringSkolemIdEPKc(ptr dead_on_unwind noalias writable sret(%"class.cvc5::internal::NodeTemplate") align 8 %0, ptr noundef nonnull align 8 dereferenceable(136) %1, ptr noundef readonly captures(none) %2, ptr noundef readonly captures(none) %3, i32 noundef %4, ptr noundef captures(address_is_null) %5) local_unnamed_addr #3 align 2 personality ptr @__gxx_personality_v0 {
  %7 = alloca %"class.cvc5::internal::TypeNode", align 8
  %8 = alloca %"class.cvc5::internal::NodeTemplate", align 8
  %9 = alloca %"class.cvc5::internal::NodeTemplate", align 8
  %10 = load ptr, ptr %2, align 8, !tbaa !33
  store ptr %10, ptr %7, align 8, !tbaa !33
  %11 = load i64, ptr %10, align 8
  %12 = lshr i64 %11, 40
  %13 = trunc nuw nsw i64 %12 to i32
  %14 = and i32 %13, 1048575
  %15 = icmp samesign ult i32 %14, 1048574
  br i1 %15, label %16, label %21, !prof !44

16:                                               ; preds = %6
  %17 = add i64 %11, 1099511627776
  %18 = and i64 %17, 1152920405095219200
  %19 = and i64 %11, -1152920405095219201
  %20 = or disjoint i64 %18, %19
  store i64 %20, ptr %10, align 8
  br label %_ZN4cvc58internal8TypeNodeC2ERKS1_.exit

21:                                               ; preds = %6
  %22 = icmp eq i32 %14, 1048574
  br i1 %22, label %23, label %_ZN4cvc58internal8TypeNodeC2ERKS1_.exit, !prof !43

23:                                               ; preds = %21
  %24 = or i64 %11, 1152920405095219200
  store i64 %24, ptr %10, align 8
  tail call void @_ZN4cvc58internal4expr9NodeValue20markRefCountMaxedOutEv(ptr noundef nonnull align 8 dereferenceable(24) %10)
  br label %_ZN4cvc58internal8TypeNodeC2ERKS1_.exit

_ZN4cvc58internal8TypeNodeC2ERKS1_.exit:          ; preds = %16, %21, %23
  %25 = load ptr, ptr %3, align 8, !tbaa !34
  store ptr %25, ptr %8, align 8, !tbaa !34
  %26 = load i64, ptr %25, align 8
  %27 = lshr i64 %26, 40
  %28 = trunc nuw nsw i64 %27 to i32
  %29 = and i32 %28, 1048575
  %30 = icmp samesign ult i32 %29, 1048574
  br i1 %30, label %31, label %36, !prof !44

31:                                               ; preds = %_ZN4cvc58internal8TypeNodeC2ERKS1_.exit
  %32 = add i64 %26, 1099511627776
  %33 = and i64 %32, 1152920405095219200
  %34 = and i64 %26, -1152920405095219201
  %35 = or disjoint i64 %33, %34
  store i64 %35, ptr %25, align 8
  br label %_ZN4cvc58internal12NodeTemplateILb1EEC2ERKS2_.exit

36:                                               ; preds = %_ZN4cvc58internal8TypeNodeC2ERKS1_.exit
  %37 = icmp eq i32 %29, 1048574
  br i1 %37, label %38, label %_ZN4cvc58internal12NodeTemplateILb1EEC2ERKS2_.exit, !prof !43

38:                                               ; preds = %36
  %39 = or i64 %26, 1152920405095219200
  store i64 %39, ptr %25, align 8
  invoke void @_ZN4cvc58internal4expr9NodeValue20markRefCountMaxedOutEv(ptr noundef nonnull align 8 dereferenceable(24) %25)
          to label %_ZN4cvc58internal12NodeTemplateILb1EEC2ERKS2_.exit unwind label %95

_ZN4cvc58internal12NodeTemplateILb1EEC2ERKS2_.exit: ; preds = %36, %31, %38
  tail call void @llvm.experimental.noalias.scope.decl(metadata !129)
  %40 = load ptr, ptr @_ZN4cvc58internal12NodeTemplateILb1EE6s_nullE, align 8, !tbaa !34, !noalias !129
  store ptr %40, ptr %9, align 8, !tbaa !34, !alias.scope !129
  %41 = load i64, ptr %40, align 8, !noalias !129
  %42 = lshr i64 %41, 40
  %43 = trunc nuw nsw i64 %42 to i32
  %44 = and i32 %43, 1048575
  %45 = icmp samesign ult i32 %44, 1048574
  br i1 %45, label %46, label %51, !prof !44

46:                                               ; preds = %_ZN4cvc58internal12NodeTemplateILb1EEC2ERKS2_.exit
  %47 = add i64 %41, 1099511627776
  %48 = and i64 %47, 1152920405095219200
  %49 = and i64 %41, -1152920405095219201
  %50 = or disjoint i64 %48, %49
  store i64 %50, ptr %40, align 8, !noalias !129
  br label %_ZN4cvc58internal12NodeTemplateILb1EE4nullEv.exit

51:                                               ; preds = %_ZN4cvc58internal12NodeTemplateILb1EEC2ERKS2_.exit
  %52 = icmp eq i32 %44, 1048574
  br i1 %52, label %53, label %_ZN4cvc58internal12NodeTemplateILb1EE4nullEv.exit, !prof !43

53:                                               ; preds = %51
  %54 = or i64 %41, 1152920405095219200
  store i64 %54, ptr %40, align 8, !noalias !129
  invoke void @_ZN4cvc58internal4expr9NodeValue20markRefCountMaxedOutEv(ptr noundef nonnull align 8 dereferenceable(24) %40)
          to label %_ZN4cvc58internal12NodeTemplateILb1EE4nullEv.exit unwind label %97

_ZN4cvc58internal12NodeTemplateILb1EE4nullEv.exit: ; preds = %51, %46, %53
  invoke void @_ZN4cvc58internal6theory7strings11SkolemCache19mkTypedSkolemCachedENS0_8TypeNodeENS0_12NodeTemplateILb1EEES6_NS3_14StringSkolemIdEPKc(ptr dead_on_unwind writable sret(%"class.cvc5::internal::NodeTemplate") align 8 %0, ptr noundef nonnull align 8 dereferenceable(136) %1, ptr noundef nonnull %7, ptr noundef nonnull %8, ptr noundef nonnull %9, i32 noundef %4, ptr noundef %5)
          to label %55 unwind label %99

55:                                               ; preds = %_ZN4cvc58internal12NodeTemplateILb1EE4nullEv.exit
  %56 = load ptr, ptr %9, align 8, !tbaa !34
  %57 = load i64, ptr %56, align 8
  %58 = and i64 %57, 1152920405095219200
  %.not.i.i = icmp eq i64 %58, 1152920405095219200
  br i1 %.not.i.i, label %_ZN4cvc58internal12NodeTemplateILb1EED2Ev.exit, label %59, !prof !43

59:                                               ; preds = %55
  %60 = add i64 %57, 1152920405095219200
  %61 = and i64 %60, 1152920405095219200
  %62 = and i64 %57, -1152920405095219201
  %63 = or disjoint i64 %61, %62
  store i64 %63, ptr %56, align 8
  %64 = icmp eq i64 %61, 0
  br i1 %64, label %65, label %_ZN4cvc58internal12NodeTemplateILb1EED2Ev.exit, !prof !43

65:                                               ; preds = %59
  invoke void @_ZN4cvc58internal4expr9NodeValue15markForDeletionEv(ptr noundef nonnull align 8 dereferenceable(24) %56)
          to label %_ZN4cvc58internal12NodeTemplateILb1EED2Ev.exit unwind label %66

66:                                               ; preds = %65
  %67 = landingpad { ptr, i32 }
          catch ptr null
  %68 = extractvalue { ptr, i32 } %67, 0
  call void @__clang_call_terminate(ptr %68) #25
  unreachable

_ZN4cvc58internal12NodeTemplateILb1EED2Ev.exit:   ; preds = %55, %59, %65
  %69 = load ptr, ptr %8, align 8, !tbaa !34
  %70 = load i64, ptr %69, align 8
  %71 = and i64 %70, 1152920405095219200
  %.not.i.i9 = icmp eq i64 %71, 1152920405095219200
  br i1 %.not.i.i9, label %_ZN4cvc58internal12NodeTemplateILb1EED2Ev.exit10, label %72, !prof !43

72:                                               ; preds = %_ZN4cvc58internal12NodeTemplateILb1EED2Ev.exit
  %73 = add i64 %70, 1152920405095219200
  %74 = and i64 %73, 1152920405095219200
  %75 = and i64 %70, -1152920405095219201
  %76 = or disjoint i64 %74, %75
  store i64 %76, ptr %69, align 8
  %77 = icmp eq i64 %74, 0
  br i1 %77, label %78, label %_ZN4cvc58internal12NodeTemplateILb1EED2Ev.exit10, !prof !43

78:                                               ; preds = %72
  invoke void @_ZN4cvc58internal4expr9NodeValue15markForDeletionEv(ptr noundef nonnull align 8 dereferenceable(24) %69)
          to label %_ZN4cvc58internal12NodeTemplateILb1EED2Ev.exit10 unwind label %79

79:                                               ; preds = %78
  %80 = landingpad { ptr, i32 }
          catch ptr null
  %81 = extractvalue { ptr, i32 } %80, 0
  call void @__clang_call_terminate(ptr %81) #25
  unreachable

_ZN4cvc58internal12NodeTemplateILb1EED2Ev.exit10: ; preds = %_ZN4cvc58internal12NodeTemplateILb1EED2Ev.exit, %72, %78
  %82 = load ptr, ptr %7, align 8, !tbaa !33
  %83 = load i64, ptr %82, align 8
  %84 = and i64 %83, 1152920405095219200
  %.not.i.i11 = icmp eq i64 %84, 1152920405095219200
  br i1 %.not.i.i11, label %_ZN4cvc58internal8TypeNodeD2Ev.exit, label %85, !prof !43

85:                                               ; preds = %_ZN4cvc58internal12NodeTemplateILb1EED2Ev.exit10
  %86 = add i64 %83, 1152920405095219200
  %87 = and i64 %86, 1152920405095219200
  %88 = and i64 %83, -1152920405095219201
  %89 = or disjoint i64 %87, %88
  store i64 %89, ptr %82, align 8
  %90 = icmp eq i64 %87, 0
  br i1 %90, label %91, label %_ZN4cvc58internal8TypeNodeD2Ev.exit, !prof !43

91:                                               ; preds = %85
  invoke void @_ZN4cvc58internal4expr9NodeValue15markForDeletionEv(ptr noundef nonnull align 8 dereferenceable(24) %82)
          to label %_ZN4cvc58internal8TypeNodeD2Ev.exit unwind label %92

92:                                               ; preds = %91
  %93 = landingpad { ptr, i32 }
          catch ptr null
  %94 = extractvalue { ptr, i32 } %93, 0
  call void @__clang_call_terminate(ptr %94) #25
  unreachable

_ZN4cvc58internal8TypeNodeD2Ev.exit:              ; preds = %_ZN4cvc58internal12NodeTemplateILb1EED2Ev.exit10, %85, %91
  ret void

95:                                               ; preds = %38
  %96 = landingpad { ptr, i32 }
          cleanup
  br label %102

97:                                               ; preds = %53
  %98 = landingpad { ptr, i32 }
          cleanup
  br label %101

99:                                               ; preds = %_ZN4cvc58internal12NodeTemplateILb1EE4nullEv.exit
  %100 = landingpad { ptr, i32 }
          cleanup
  call void @_ZN4cvc58internal12NodeTemplateILb1EED2Ev(ptr noundef nonnull align 8 dereferenceable(8) %9) #23
  br label %101

101:                                              ; preds = %99, %97
  %.pn = phi { ptr, i32 } [ %100, %99 ], [ %98, %97 ]
  call void @_ZN4cvc58internal12NodeTemplateILb1EED2Ev(ptr noundef nonnull align 8 dereferenceable(8) %8) #23
  br label %102

102:                                              ; preds = %101, %95
  %.pn.pn = phi { ptr, i32 } [ %.pn, %101 ], [ %96, %95 ]
  call void @_ZN4cvc58internal8TypeNodeD2Ev(ptr noundef nonnull align 8 dereferenceable(8) %7) #23
  resume { ptr, i32 } %.pn.pn
}